target datalayout = "e-m:e-p270:32:32-p271:32:32-p272:64:64-i64:64-i128:128-f80:128-n8:16:32:64-S128"
target triple = "x86_64-pc-linux-gnu"

; Function Attrs: nounwind uwtable
define internal void @HorizontalUnfilter_C(ptr noundef %0, ptr noundef %1, ptr noundef %2, i32 noundef %3) #0 {
  %5 = alloca ptr, align 8
  %6 = alloca ptr, align 8
  %7 = alloca ptr, align 8
  %8 = alloca i32, align 4
  %9 = alloca i8, align 1
  %10 = alloca i32, align 4
  store ptr %0, ptr %5, align 8
  store ptr %1, ptr %6, align 8
  store ptr %2, ptr %7, align 8
  store i32 %3, ptr %8, align 4
  %11 = load ptr, ptr %5, align 8
  %12 = icmp eq ptr %11, null
  br i1 %12, label %13, label %14

13:                                               ; preds = %4
  br label %19

14:                                               ; preds = %4
  %15 = load ptr, ptr %5, align 8
  %16 = getelementptr inbounds i8, ptr %15, i64 0
  %17 = load i8, ptr %16, align 1
  %18 = zext i8 %17 to i32
  br label %19

19:                                               ; preds = %14, %13
  %20 = phi i32 [ 0, %13 ], [ %18, %14 ]
  %21 = trunc i32 %20 to i8
  store i8 %21, ptr %9, align 1
  store i32 0, ptr %10, align 4
  br label %22

22:                                               ; preds = %46, %19
  %23 = load i32, ptr %10, align 4
  %24 = load i32, ptr %8, align 4
  %25 = icmp slt i32 %23, %24
  br i1 %25, label %26, label %49

26:                                               ; preds = %22
  %27 = load i8, ptr %9, align 1
  %28 = zext i8 %27 to i32
  %29 = load ptr, ptr %6, align 8
  %30 = load i32, ptr %10, align 4
  %31 = sext i32 %30 to i64
  %32 = getelementptr inbounds i8, ptr %29, i64 %31
  %33 = load i8, ptr %32, align 1
  %34 = zext i8 %33 to i32
  %35 = add nsw i32 %28, %34
  %36 = trunc i32 %35 to i8
  %37 = load ptr, ptr %7, align 8
  %38 = load i32, ptr %10, align 4
  %39 = sext i32 %38 to i64
  %40 = getelementptr inbounds i8, ptr %37, i64 %39
  store i8 %36, ptr %40, align 1
  %41 = load ptr, ptr %7, align 8
  %42 = load i32, ptr %10, align 4
  %43 = sext i32 %42 to i64
  %44 = getelementptr inbounds i8, ptr %41, i64 %43
  %45 = load i8, ptr %44, align 1
  store i8 %45, ptr %9, align 1
  br label %46

46:                                               ; preds = %26
  %47 = load i32, ptr %10, align 4
  %48 = add nsw i32 %47, 1
  store i32 %48, ptr %10, align 4
  br label %22, !llvm.loop !4

49:                                               ; preds = %22
  ret void
}

; Function Attrs: nounwind uwtable
define internal void @VerticalUnfilter_C(ptr noundef %0, ptr noundef %1, ptr noundef %2, i32 noundef %3) #0 {
  %5 = alloca ptr, align 8
  %6 = alloca ptr, align 8
  %7 = alloca ptr, align 8
  %8 = alloca i32, align 4
  %9 = alloca i32, align 4
  store ptr %0, ptr %5, align 8
  store ptr %1, ptr %6, align 8
  store ptr %2, ptr %7, align 8
  store i32 %3, ptr %8, align 4
  %10 = load ptr, ptr %5, align 8
  %11 = icmp eq ptr %10, null
  br i1 %11, label %12, label %16

12:                                               ; preds = %4
  %13 = load ptr, ptr %6, align 8
  %14 = load ptr, ptr %7, align 8
  %15 = load i32, ptr %8, align 4
  call void @HorizontalUnfilter_C(ptr noundef null, ptr noundef %13, ptr noundef %14, i32 noundef %15)
  br label %44

16:                                               ; preds = %4
  store i32 0, ptr %9, align 4
  br label %17

17:                                               ; preds = %40, %16
  %18 = load i32, ptr %9, align 4
  %19 = load i32, ptr %8, align 4
  %20 = icmp slt i32 %18, %19
  br i1 %20, label %21, label %43

21:                                               ; preds = %17
  %22 = load ptr, ptr %5, align 8
  %23 = load i32, ptr %9, align 4
  %24 = sext i32 %23 to i64
  %25 = getelementptr inbounds i8, ptr %22, i64 %24
  %26 = load i8, ptr %25, align 1
  %27 = zext i8 %26 to i32
  %28 = load ptr, ptr %6, align 8
  %29 = load i32, ptr %9, align 4
  %30 = sext i32 %29 to i64
  %31 = getelementptr inbounds i8, ptr %28, i64 %30
  %32 = load i8, ptr %31, align 1
  %33 = zext i8 %32 to i32
  %34 = add nsw i32 %27, %33
  %35 = trunc i32 %34 to i8
  %36 = load ptr, ptr %7, align 8
  %37 = load i32, ptr %9, align 4
  %38 = sext i32 %37 to i64
  %39 = getelementptr inbounds i8, ptr %36, i64 %38
  store i8 %35, ptr %39, align 1
  br label %40

40:                                               ; preds = %21
  %41 = load i32, ptr %9, align 4
  %42 = add nsw i32 %41, 1
  store i32 %42, ptr %9, align 4
  br label %17, !llvm.loop !6

43:                                               ; preds = %17
  br label %44

44:                                               ; preds = %43, %12
  ret void
}