; Function Attrs: nofree norecurse nosync nounwind memory(argmem: readwrite) uwtable
define internal void @VerticalUnfilter_C(ptr noundef readonly %0, ptr nocapture noundef readonly %1, ptr nocapture noundef writeonly %2, i32 noundef %3) #3 {
  %5 = icmp eq ptr %0, null
  %6 = icmp sgt i32 %3, 0
  br i1 %5, label %7, label %.preheader

.preheader:                                       ; preds = %4
  br i1 %6, label %.lr.ph.preheader, label %HorizontalUnfilter_C.exit

.lr.ph.preheader:                                 ; preds = %.preheader
  %wide.trip.count = zext nneg i32 %3 to i64
  br label %.lr.ph

7:                                                ; preds = %4
  br i1 %6, label %.lr.ph.preheader.i, label %HorizontalUnfilter_C.exit

.lr.ph.preheader.i:                               ; preds = %7
  %wide.trip.count.i = zext nneg i32 %3 to i64
  br label %.lr.ph.i

.lr.ph.i:                                         ; preds = %.lr.ph.i, %.lr.ph.preheader.i
  %indvars.iv.i = phi i64 [ 0, %.lr.ph.preheader.i ], [ %indvars.iv.next.i, %.lr.ph.i ]
  %.01113.i = phi i8 [ 0, %.lr.ph.preheader.i ], [ %10, %.lr.ph.i ]
  %8 = getelementptr inbounds i8, ptr %1, i64 %indvars.iv.i
  %9 = load i8, ptr %8, align 1
  %10 = add i8 %9, %.01113.i
  %11 = getelementptr inbounds i8, ptr %2, i64 %indvars.iv.i
  store i8 %10, ptr %11, align 1
  %indvars.iv.next.i = add nuw nsw i64 %indvars.iv.i, 1
  %exitcond.not.i = icmp eq i64 %indvars.iv.next.i, %wide.trip.count.i
  br i1 %exitcond.not.i, label %HorizontalUnfilter_C.exit, label %.lr.ph.i, !llvm.loop !4

.lr.ph:                                           ; preds = %.lr.ph.preheader, %.lr.ph
  %indvars.iv = phi i64 [ 0, %.lr.ph.preheader ], [ %indvars.iv.next, %.lr.ph ]
  %12 = getelementptr inbounds i8, ptr %0, i64 %indvars.iv
  %13 = load i8, ptr %12, align 1
  %14 = getelementptr inbounds i8, ptr %1, i64 %indvars.iv
  %15 = load i8, ptr %14, align 1
  %16 = add i8 %15, %13
  %17 = getelementptr inbounds i8, ptr %2, i64 %indvars.iv
  store i8 %16, ptr %17, align 1
  %indvars.iv.next = add nuw nsw i64 %indvars.iv, 1
  %exitcond.not = icmp eq i64 %indvars.iv.next, %wide.trip.count
  br i1 %exitcond.not, label %HorizontalUnfilter_C.exit, label %.lr.ph, !llvm.loop !6

HorizontalUnfilter_C.exit:                        ; preds = %.lr.ph, %.lr.ph.i, %.preheader, %7
  ret void
}